; Function Attrs: mustprogress uwtable
define i64 @_ZN9grpc_core27GrpcRetryPushbackMsMetadata12ParseMementoENS_5SliceEbN4absl12lts_2023080211FunctionRefIFvSt17basic_string_viewIcSt11char_traitsIcEERKS1_EEE(ptr noundef %value, i1 noundef zeroext %0, ptr %on_error.coerce0, ptr nocapture readonly %on_error.coerce1) local_unnamed_addr #3 align 2 personality ptr @__gxx_personality_v0 {
entry:
  %val.i.i = alloca i64, align 8
  %1 = load ptr, ptr %value, align 8
  %tobool.not.i.i = icmp eq ptr %1, null
  %bytes.i.i = getelementptr inbounds i8, ptr %value, i64 16
  %2 = load ptr, ptr %bytes.i.i, align 8
  %bytes5.i.i = getelementptr inbounds i8, ptr %value, i64 9
  %cond.i.i = select i1 %tobool.not.i.i, ptr %bytes5.i.i, ptr %2
  %data.i.i = getelementptr inbounds i8, ptr %value, i64 8
  %3 = load i64, ptr %data.i.i, align 8
  %conv.i.i = and i64 %3, 255
  %cond.i2.i = select i1 %tobool.not.i.i, i64 %conv.i.i, i64 %3
  call void @llvm.lifetime.start.p0(i64 8, ptr nonnull %val.i.i)
  %call.i.i = call noundef zeroext i1 @_ZN4absl12lts_2023080216numbers_internal17safe_strto64_baseESt17basic_string_viewIcSt11char_traitsIcEEPli(i64 %cond.i2.i, ptr %cond.i.i, ptr noundef nonnull %val.i.i, i32 noundef 10)
  %4 = load i64, ptr %val.i.i, align 8
  call void @llvm.lifetime.end.p0(i64 8, ptr nonnull %val.i.i)
  br i1 %call.i.i, label %return, label %if.then

if.then:                                          ; preds = %entry
  call void %on_error.coerce1(ptr %on_error.coerce0, i64 14, ptr nonnull @.str.19, ptr noundef nonnull align 8 dereferenceable(32) %value)
  br label %return

return:                                           ; preds = %entry, %if.then
  %retval.sroa.0.0 = phi i64 [ -9223372036854775808, %if.then ], [ %4, %entry ]
  ret i64 %retval.sroa.0.0
}